; Function Attrs: mustprogress uwtable
define hidden noundef ptr @_ZN14bv_decl_plugin7mk_sortEijPK9parameter(ptr noundef nonnull align 8 dereferenceable(608) %0, i32 %1, i32 noundef %2, ptr noundef readonly captures(none) %3) unnamed_addr #3 align 2 {
  %5 = icmp eq i32 %2, 1
  br i1 %5, label %6, label %10

6:                                                ; preds = %4
  %7 = getelementptr inbounds nuw i8, ptr %3, i64 8
  %8 = load i8, ptr %7, align 8, !tbaa !117
  %9 = icmp eq i8 %8, 0
  br i1 %9, label %_ZNK9parameter7get_intEv.exit, label %10

10:                                               ; preds = %6, %4
  %11 = getelementptr inbounds nuw i8, ptr %0, i64 8
  %12 = load ptr, ptr %11, align 8, !tbaa !3
  tail call void @_ZN11ast_manager15raise_exceptionEPKc(ptr noundef nonnull align 8 dereferenceable(976) %12, ptr noundef nonnull @.str.16) #26
  unreachable

_ZNK9parameter7get_intEv.exit:                    ; preds = %6
  %13 = load i32, ptr %3, align 4, !tbaa !38
  %14 = icmp eq i32 %13, 0
  br i1 %14, label %15, label %18

15:                                               ; preds = %_ZNK9parameter7get_intEv.exit
  %16 = getelementptr inbounds nuw i8, ptr %0, i64 8
  %17 = load ptr, ptr %16, align 8, !tbaa !3
  tail call void @_ZN11ast_manager15raise_exceptionEPKc(ptr noundef nonnull align 8 dereferenceable(976) %17, ptr noundef nonnull @.str.17) #26
  unreachable

18:                                               ; preds = %_ZNK9parameter7get_intEv.exit
  tail call void @_ZN14bv_decl_plugin10mk_bv_sortEj(ptr noundef nonnull align 8 dereferenceable(608) %0, i32 noundef %13)
  %19 = getelementptr inbounds nuw i8, ptr %0, i64 136
  %20 = load ptr, ptr %19, align 8, !tbaa !13
  %21 = zext i32 %13 to i64
  %22 = getelementptr inbounds nuw ptr, ptr %20, i64 %21
  %23 = load ptr, ptr %22, align 8, !tbaa !17
  ret ptr %23
}